; Function Attrs: mustprogress uwtable
define noundef range(i32 -1, 1) i32 @_ZN3zmq16null_mechanism_t17zap_msg_availableEv(ptr noundef nonnull align 8 dereferenceable(1576) %0) unnamed_addr #0 align 2 {
  %2 = getelementptr inbounds nuw i8, ptr %0, i64 77
  %3 = load i8, ptr %2, align 1, !tbaa !23, !range !18, !noundef !19
  %4 = trunc nuw i8 %3 to i1
  br i1 %4, label %5, label %7

5:                                                ; preds = %1
  %6 = tail call ptr @__errno_location() #20
  store i32 156384763, ptr %6, align 4, !tbaa !21
  br label %14

7:                                                ; preds = %1
  %8 = tail call noundef i32 @_ZN3zmq12zap_client_t29receive_and_process_zap_replyEv(ptr noundef nonnull align 8 dereferenceable(72) %0)
  %9 = icmp eq i32 %8, 0
  br i1 %9, label %10, label %11

10:                                               ; preds = %7
  store i8 1, ptr %2, align 1, !tbaa !23
  br label %11

11:                                               ; preds = %10, %7
  %12 = icmp eq i32 %8, -1
  %13 = sext i1 %12 to i32
  br label %14

14:                                               ; preds = %11, %5
  %.0 = phi i32 [ -1, %5 ], [ %13, %11 ]
  ret i32 %.0
}